; ModuleID = '45/423.c'
source_filename = "45/423.c"
target datalayout = "e-m:e-p270:32:32-p271:32:32-p272:64:64-i64:64-f80:128-n8:16:32:64-S128"
target triple = "x86_64-pc-linux-gnu"

@.str = private unnamed_addr constant [3 x i8] c"%d\00", align 1

; Function Attrs: noinline nounwind uwtable
define dso_local void @main() #0 {
  %1 = alloca [102 x i8], align 16
  %2 = alloca [50 x i8], align 16
  %3 = alloca i32, align 4
  %4 = alloca i32, align 4
  %5 = alloca [102 x i32], align 16
  %6 = bitcast [102 x i32]* %5 to i8*
  call void @llvm.memset.p0i8.i64(i8* align 16 %6, i8 0, i64 408, i1 false)
  %7 = getelementptr inbounds [102 x i8], [102 x i8]* %1, i64 0, i64 0
  %8 = call i32 (i8*, ...) bitcast (i32 (...)* @gets to i32 (i8*, ...)*)(i8* %7)
  store i32 0, i32* %3, align 4
  br label %9

9:                                                ; preds = %24, %0
  %10 = load i32, i32* %3, align 4
  %11 = sext i32 %10 to i64
  %12 = getelementptr inbounds [102 x i8], [102 x i8]* %1, i64 0, i64 %11
  %13 = load i8, i8* %12, align 1
  %14 = sext i8 %13 to i32
  %15 = icmp ne i32 %14, 32
  br i1 %15, label %16, label %27

16:                                               ; preds = %9
  %17 = load i32, i32* %3, align 4
  %18 = sext i32 %17 to i64
  %19 = getelementptr inbounds [102 x i8], [102 x i8]* %1, i64 0, i64 %18
  %20 = load i8, i8* %19, align 1
  %21 = load i32, i32* %3, align 4
  %22 = sext i32 %21 to i64
  %23 = getelementptr inbounds [50 x i8], [50 x i8]* %2, i64 0, i64 %22
  store i8 %20, i8* %23, align 1
  br label %24

24:                                               ; preds = %16
  %25 = load i32, i32* %3, align 4
  %26 = add nsw i32 %25, 1
  store i32 %26, i32* %3, align 4
  br label %9

27:                                               ; preds = %9
  %28 = load i32, i32* %3, align 4
  %29 = sext i32 %28 to i64
  %30 = getelementptr inbounds [50 x i8], [50 x i8]* %2, i64 0, i64 %29
  store i8 0, i8* %30, align 1
  %31 = getelementptr inbounds [50 x i8], [50 x i8]* %2, i64 0, i64 0
  %32 = call i64 @strlen(i8* %31) #4
  %33 = add i64 %32, 1
  %34 = trunc i64 %33 to i32
  store i32 %34, i32* %3, align 4
  br label %35

35:                                               ; preds = %71, %27
  %36 = load i32, i32* %3, align 4
  %37 = sext i32 %36 to i64
  %38 = getelementptr inbounds [102 x i8], [102 x i8]* %1, i64 0, i64 0
  %39 = call i64 @strlen(i8* %38) #4
  %40 = icmp ult i64 %37, %39
  br i1 %40, label %41, label %74

41:                                               ; preds = %35
  store i32 0, i32* %4, align 4
  br label %42

42:                                               ; preds = %67, %41
  %43 = load i32, i32* %4, align 4
  %44 = sext i32 %43 to i64
  %45 = getelementptr inbounds [50 x i8], [50 x i8]* %2, i64 0, i64 0
  %46 = call i64 @strlen(i8* %45) #4
  %47 = icmp ult i64 %44, %46
  br i1 %47, label %48, label %70

48:                                               ; preds = %42
  %49 = load i32, i32* %3, align 4
  %50 = load i32, i32* %4, align 4
  %51 = add nsw i32 %49, %50
  %52 = sext i32 %51 to i64
  %53 = getelementptr inbounds [102 x i8], [102 x i8]* %1, i64 0, i64 %52
  %54 = load i8, i8* %53, align 1
  %55 = sext i8 %54 to i32
  %56 = load i32, i32* %4, align 4
  %57 = sext i32 %56 to i64
  %58 = getelementptr inbounds [50 x i8], [50 x i8]* %2, i64 0, i64 %57
  %59 = load i8, i8* %58, align 1
  %60 = sext i8 %59 to i32
  %61 = icmp ne i32 %55, %60
  br i1 %61, label %62, label %66

62:                                               ; preds = %48
  %63 = load i32, i32* %3, align 4
  %64 = sext i32 %63 to i64
  %65 = getelementptr inbounds [102 x i32], [102 x i32]* %5, i64 0, i64 %64
  store i32 1, i32* %65, align 4
  br label %66

66:                                               ; preds = %62, %48
  br label %67

67:                                               ; preds = %66
  %68 = load i32, i32* %4, align 4
  %69 = add nsw i32 %68, 1
  store i32 %69, i32* %4, align 4
  br label %42

70:                                               ; preds = %42
  br label %71

71:                                               ; preds = %70
  %72 = load i32, i32* %3, align 4
  %73 = add nsw i32 %72, 1
  store i32 %73, i32* %3, align 4
  br label %35

74:                                               ; preds = %35
  %75 = getelementptr inbounds [50 x i8], [50 x i8]* %2, i64 0, i64 0
  %76 = call i64 @strlen(i8* %75) #4
  %77 = add i64 %76, 1
  %78 = trunc i64 %77 to i32
  store i32 %78, i32* %3, align 4
  br label %79

79:                                               ; preds = %100, %74
  %80 = load i32, i32* %3, align 4
  %81 = sext i32 %80 to i64
  %82 = getelementptr inbounds [102 x i8], [102 x i8]* %1, i64 0, i64 0
  %83 = call i64 @strlen(i8* %82) #4
  %84 = icmp ult i64 %81, %83
  br i1 %84, label %85, label %103

85:                                               ; preds = %79
  %86 = load i32, i32* %3, align 4
  %87 = sext i32 %86 to i64
  %88 = getelementptr inbounds [102 x i32], [102 x i32]* %5, i64 0, i64 %87
  %89 = load i32, i32* %88, align 4
  %90 = icmp eq i32 %89, 0
  br i1 %90, label %91, label %99

91:                                               ; preds = %85
  %92 = load i32, i32* %3, align 4
  %93 = sext i32 %92 to i64
  %94 = getelementptr inbounds [50 x i8], [50 x i8]* %2, i64 0, i64 0
  %95 = call i64 @strlen(i8* %94) #4
  %96 = sub i64 %93, %95
  %97 = sub i64 %96, 1
  %98 = call i32 (i8*, ...) @printf(i8* getelementptr inbounds ([3 x i8], [3 x i8]* @.str, i64 0, i64 0), i64 %97)
  br label %103

99:                                               ; preds = %85
  br label %100

100:                                              ; preds = %99
  %101 = load i32, i32* %3, align 4
  %102 = add nsw i32 %101, 1
  store i32 %102, i32* %3, align 4
  br label %79

103:                                              ; preds = %91, %79
  ret void
}

; Function Attrs: argmemonly nounwind willreturn
declare void @llvm.memset.p0i8.i64(i8* nocapture writeonly, i8, i64, i1 immarg) #1

declare dso_local i32 @gets(...) #2

; Function Attrs: nounwind readonly
declare dso_local i64 @strlen(i8*) #3

declare dso_local i32 @printf(i8*, ...) #2


!llvm.module.flags = !{!0}
!llvm.ident = !{!1}

!0 = !{i32 1, !"wchar_size", i32 4}
!1 = !{!"clang version 10.0.0-4ubuntu1 "}
